target datalayout = "e-m:e-p270:32:32-p271:32:32-p272:64:64-i64:64-i128:128-f80:128-n8:16:32:64-S128"
target triple = "x86_64-unknown-linux-gnu"

%"struct.std::_Vector_base.103" = type { %"struct.std::_Vector_base<const int *, std::allocator<const int *>>::_Vector_impl" }
%"struct.std::_Vector_base<const int *, std::allocator<const int *>>::_Vector_impl" = type { %"struct.std::_Vector_base<const int *, std::allocator<const int *>>::_Vector_impl_data" }
%"struct.std::_Vector_base<const int *, std::allocator<const int *>>::_Vector_impl_data" = type { ptr, ptr, ptr }
%class.anon = type { ptr, ptr, ptr, ptr, ptr, ptr }
%class.anon.134 = type { ptr, ptr, ptr }

; Function Attrs: mustprogress nounwind uwtable
define linkonce_odr noundef nonnull align 4 dereferenceable(4) ptr @_ZSt3maxIiERKT_S2_S2_(ptr noundef nonnull align 4 dereferenceable(4) %__a, ptr noundef nonnull align 4 dereferenceable(4) %__b) #2 comdat {
entry:
  %retval = alloca ptr, align 8
  %__a.addr = alloca ptr, align 8
  %__b.addr = alloca ptr, align 8
  store ptr %__a, ptr %__a.addr, align 8
  store ptr %__b, ptr %__b.addr, align 8
  %0 = load ptr, ptr %__a.addr, align 8
  %1 = load i32, ptr %0, align 4
  %2 = load ptr, ptr %__b.addr, align 8
  %3 = load i32, ptr %2, align 4
  %cmp = icmp slt i32 %1, %3
  br i1 %cmp, label %if.then, label %if.end

if.then:                                          ; preds = %entry
  %4 = load ptr, ptr %__b.addr, align 8
  store ptr %4, ptr %retval, align 8
  br label %return

if.end:                                           ; preds = %entry
  %5 = load ptr, ptr %__a.addr, align 8
  store ptr %5, ptr %retval, align 8
  br label %return

return:                                           ; preds = %if.end, %if.then
  %6 = load ptr, ptr %retval, align 8
  ret ptr %6
}

; Function Attrs: mustprogress nounwind uwtable
define linkonce_odr noundef nonnull align 8 dereferenceable(8) ptr @_ZNSt6vectorIPKiSaIS1_EEixEm(ptr noundef nonnull align 8 dereferenceable(24) %this, i64 noundef %__n) #2 comdat align 2 {
entry:
  %this.addr = alloca ptr, align 8
  %__n.addr = alloca i64, align 8
  store ptr %this, ptr %this.addr, align 8
  store i64 %__n, ptr %__n.addr, align 8
  %this1 = load ptr, ptr %this.addr, align 8
  %_M_impl = getelementptr inbounds %"struct.std::_Vector_base.103", ptr %this1, i32 0, i32 0
  %_M_start = getelementptr inbounds %"struct.std::_Vector_base<const int *, std::allocator<const int *>>::_Vector_impl_data", ptr %_M_impl, i32 0, i32 0
  %0 = load ptr, ptr %_M_start, align 8
  %1 = load i64, ptr %__n.addr, align 8
  %add.ptr = getelementptr inbounds ptr, ptr %0, i64 %1
  ret ptr %add.ptr
}

; Function Attrs: mustprogress uwtable
define internal noundef i32 @_ZZNK8facebook5velox9functions12_GLOBAL__N_111ZipFunction5applyERKNS0_17SelectivityVectorERSt6vectorISt10shared_ptrINS0_10BaseVectorEESaISA_EERKS8_IKNS0_4TypeEERNS0_4exec7EvalCtxERSA_ENKUliE_clEi(ptr noundef nonnull align 8 dereferenceable(48) %this, i32 noundef %row) #0 align 2 {
entry:
  %this.addr = alloca ptr, align 8
  %row.addr = alloca i32, align 4
  %maxSize = alloca i32, align 4
  %offset = alloca i32, align 4
  %i = alloca i32, align 4
  %size = alloca i32, align 4
  store ptr %this, ptr %this.addr, align 8
  store i32 %row, ptr %row.addr, align 4
  %this1 = load ptr, ptr %this.addr, align 8
  store i32 0, ptr %maxSize, align 4
  store i32 -1, ptr %offset, align 4
  store i32 0, ptr %i, align 4
  br label %for.cond

for.cond:                                         ; preds = %for.inc, %entry
  %0 = load i32, ptr %i, align 4
  %1 = getelementptr inbounds %class.anon, ptr %this1, i32 0, i32 0
  %2 = load ptr, ptr %1, align 8
  %3 = load i32, ptr %2, align 4
  %cmp = icmp slt i32 %0, %3
  br i1 %cmp, label %for.body, label %for.end

for.body:                                         ; preds = %for.cond
  %4 = getelementptr inbounds %class.anon, ptr %this1, i32 0, i32 1
  %5 = load ptr, ptr %4, align 8
  %6 = load i32, ptr %i, align 4
  %conv = sext i32 %6 to i64
  %call = call noundef nonnull align 8 dereferenceable(8) ptr @_ZNSt6vectorIPKiSaIS1_EEixEm(ptr noundef nonnull align 8 dereferenceable(24) %5, i64 noundef %conv) #16
  %7 = load ptr, ptr %call, align 8
  %8 = getelementptr inbounds %class.anon, ptr %this1, i32 0, i32 2
  %9 = load ptr, ptr %8, align 8
  %10 = load i32, ptr %i, align 4
  %conv2 = sext i32 %10 to i64
  %call3 = call noundef nonnull align 8 dereferenceable(8) ptr @_ZNSt6vectorIPKiSaIS1_EEixEm(ptr noundef nonnull align 8 dereferenceable(24) %9, i64 noundef %conv2) #16
  %11 = load ptr, ptr %call3, align 8
  %12 = load i32, ptr %row.addr, align 4
  %idxprom = sext i32 %12 to i64
  %arrayidx = getelementptr inbounds i32, ptr %11, i64 %idxprom
  %13 = load i32, ptr %arrayidx, align 4
  %idxprom4 = sext i32 %13 to i64
  %arrayidx5 = getelementptr inbounds i32, ptr %7, i64 %idxprom4
  %14 = load i32, ptr %arrayidx5, align 4
  store i32 %14, ptr %size, align 4
  %15 = load i32, ptr %i, align 4
  %cmp6 = icmp eq i32 %15, 0
  br i1 %cmp6, label %lor.end, label %lor.rhs

lor.rhs:                                          ; preds = %for.body
  %16 = load i32, ptr %maxSize, align 4
  %17 = load i32, ptr %size, align 4
  %cmp7 = icmp eq i32 %16, %17
  br label %lor.end

lor.end:                                          ; preds = %lor.rhs, %for.body
  %18 = phi i1 [ true, %for.body ], [ %cmp7, %lor.rhs ]
  %conv8 = zext i1 %18 to i32
  %19 = getelementptr inbounds %class.anon, ptr %this1, i32 0, i32 3
  %20 = load ptr, ptr %19, align 8
  %21 = load i8, ptr %20, align 1
  %tobool = trunc i8 %21 to i1
  %conv9 = zext i1 %tobool to i32
  %and = and i32 %conv9, %conv8
  %tobool10 = icmp ne i32 %and, 0
  %frombool = zext i1 %tobool10 to i8
  store i8 %frombool, ptr %20, align 1
  %22 = load i32, ptr %i, align 4
  %cmp11 = icmp eq i32 %22, 0
  br i1 %cmp11, label %lor.end22, label %lor.rhs12

lor.rhs12:                                        ; preds = %lor.end
  %23 = load i32, ptr %offset, align 4
  %24 = getelementptr inbounds %class.anon, ptr %this1, i32 0, i32 5
  %25 = load ptr, ptr %24, align 8
  %26 = load i32, ptr %i, align 4
  %conv13 = sext i32 %26 to i64
  %call14 = call noundef nonnull align 8 dereferenceable(8) ptr @_ZNSt6vectorIPKiSaIS1_EEixEm(ptr noundef nonnull align 8 dereferenceable(24) %25, i64 noundef %conv13) #16
  %27 = load ptr, ptr %call14, align 8
  %28 = getelementptr inbounds %class.anon, ptr %this1, i32 0, i32 2
  %29 = load ptr, ptr %28, align 8
  %30 = load i32, ptr %i, align 4
  %conv15 = sext i32 %30 to i64
  %call16 = call noundef nonnull align 8 dereferenceable(8) ptr @_ZNSt6vectorIPKiSaIS1_EEixEm(ptr noundef nonnull align 8 dereferenceable(24) %29, i64 noundef %conv15) #16
  %31 = load ptr, ptr %call16, align 8
  %32 = load i32, ptr %row.addr, align 4
  %idxprom17 = sext i32 %32 to i64
  %arrayidx18 = getelementptr inbounds i32, ptr %31, i64 %idxprom17
  %33 = load i32, ptr %arrayidx18, align 4
  %idxprom19 = sext i32 %33 to i64
  %arrayidx20 = getelementptr inbounds i32, ptr %27, i64 %idxprom19
  %34 = load i32, ptr %arrayidx20, align 4
  %cmp21 = icmp eq i32 %23, %34
  br label %lor.end22

lor.end22:                                        ; preds = %lor.rhs12, %lor.end
  %35 = phi i1 [ true, %lor.end ], [ %cmp21, %lor.rhs12 ]
  %conv23 = zext i1 %35 to i32
  %36 = getelementptr inbounds %class.anon, ptr %this1, i32 0, i32 4
  %37 = load ptr, ptr %36, align 8
  %38 = load i8, ptr %37, align 1
  %tobool24 = trunc i8 %38 to i1
  %conv25 = zext i1 %tobool24 to i32
  %and26 = and i32 %conv25, %conv23
  %tobool27 = icmp ne i32 %and26, 0
  %frombool28 = zext i1 %tobool27 to i8
  store i8 %frombool28, ptr %37, align 1
  %call29 = call noundef nonnull align 4 dereferenceable(4) ptr @_ZSt3maxIiERKT_S2_S2_(ptr noundef nonnull align 4 dereferenceable(4) %maxSize, ptr noundef nonnull align 4 dereferenceable(4) %size)
  %39 = load i32, ptr %call29, align 4
  store i32 %39, ptr %maxSize, align 4
  %40 = getelementptr inbounds %class.anon, ptr %this1, i32 0, i32 5
  %41 = load ptr, ptr %40, align 8
  %42 = load i32, ptr %i, align 4
  %conv30 = sext i32 %42 to i64
  %call31 = call noundef nonnull align 8 dereferenceable(8) ptr @_ZNSt6vectorIPKiSaIS1_EEixEm(ptr noundef nonnull align 8 dereferenceable(24) %41, i64 noundef %conv30) #16
  %43 = load ptr, ptr %call31, align 8
  %44 = getelementptr inbounds %class.anon, ptr %this1, i32 0, i32 2
  %45 = load ptr, ptr %44, align 8
  %46 = load i32, ptr %i, align 4
  %conv32 = sext i32 %46 to i64
  %call33 = call noundef nonnull align 8 dereferenceable(8) ptr @_ZNSt6vectorIPKiSaIS1_EEixEm(ptr noundef nonnull align 8 dereferenceable(24) %45, i64 noundef %conv32) #16
  %47 = load ptr, ptr %call33, align 8
  %48 = load i32, ptr %row.addr, align 4
  %idxprom34 = sext i32 %48 to i64
  %arrayidx35 = getelementptr inbounds i32, ptr %47, i64 %idxprom34
  %49 = load i32, ptr %arrayidx35, align 4
  %idxprom36 = sext i32 %49 to i64
  %arrayidx37 = getelementptr inbounds i32, ptr %43, i64 %idxprom36
  %50 = load i32, ptr %arrayidx37, align 4
  store i32 %50, ptr %offset, align 4
  br label %for.inc

for.inc:                                          ; preds = %lor.end22
  %51 = load i32, ptr %i, align 4
  %inc = add nsw i32 %51, 1
  store i32 %inc, ptr %i, align 4
  br label %for.cond, !llvm.loop !46

for.end:                                          ; preds = %for.cond
  %52 = load i32, ptr %maxSize, align 4
  ret i32 %52
}

; Function Attrs: mustprogress uwtable
define internal void @_ZZNK8facebook5velox9functions12_GLOBAL__N_111ZipFunction5applyERKNS0_17SelectivityVectorERSt6vectorISt10shared_ptrINS0_10BaseVectorEESaISA_EERKS8_IKNS0_4TypeEERNS0_4exec7EvalCtxERSA_ENKUlT_E_clIiEEDaSN_(ptr noundef nonnull align 8 dereferenceable(24) %this, i32 noundef %row) #0 align 2 {
entry:
  %this.addr = alloca ptr, align 8
  %row.addr = alloca i32, align 4
  %maxSize = alloca i32, align 4
  store ptr %this, ptr %this.addr, align 8
  store i32 %row, ptr %row.addr, align 4
  %this1 = load ptr, ptr %this.addr, align 8
  %0 = getelementptr inbounds %class.anon.134, ptr %this1, i32 0, i32 0
  %1 = load ptr, ptr %0, align 8
  %2 = load i32, ptr %row.addr, align 4
  %call = call noundef i32 @_ZZNK8facebook5velox9functions12_GLOBAL__N_111ZipFunction5applyERKNS0_17SelectivityVectorERSt6vectorISt10shared_ptrINS0_10BaseVectorEESaISA_EERKS8_IKNS0_4TypeEERNS0_4exec7EvalCtxERSA_ENKUliE_clEi(ptr noundef nonnull align 8 dereferenceable(48) %1, i32 noundef %2)
  store i32 %call, ptr %maxSize, align 4
  %3 = load i32, ptr %maxSize, align 4
  %4 = getelementptr inbounds %class.anon.134, ptr %this1, i32 0, i32 1
  %5 = load ptr, ptr %4, align 8
  %6 = load i32, ptr %5, align 4
  %add = add nsw i32 %6, %3
  store i32 %add, ptr %5, align 4
  %7 = load i32, ptr %maxSize, align 4
  %8 = getelementptr inbounds %class.anon.134, ptr %this1, i32 0, i32 2
  %9 = load ptr, ptr %8, align 8
  %10 = load ptr, ptr %9, align 8
  %11 = load i32, ptr %row.addr, align 4
  %idxprom = sext i32 %11 to i64
  %arrayidx = getelementptr inbounds i32, ptr %10, i64 %idxprom
  store i32 %7, ptr %arrayidx, align 4
  ret void
}