; Function Attrs: mustprogress nofree norecurse nosync nounwind memory(readwrite, inaccessiblemem: none) uwtable
define internal fastcc void @_ZZNK8facebook5velox9functions12_GLOBAL__N_111ZipFunction5applyERKNS0_17SelectivityVectorERSt6vectorISt10shared_ptrINS0_10BaseVectorEESaISA_EERKS8_IKNS0_4TypeEERNS0_4exec7EvalCtxERSA_ENKUlT_E_clIiEEDaSN_(ptr nocapture noundef nonnull readonly align 8 dereferenceable(24) %this, i32 noundef %row) unnamed_addr #15 align 2 {
entry:
  %0 = load ptr, ptr %this, align 8
  %1 = load ptr, ptr %0, align 8
  %2 = load i32, ptr %1, align 4
  %cmp23.i = icmp sgt i32 %2, 0
  br i1 %cmp23.i, label %for.body.lr.ph.i, label %entry._ZZNK8facebook5velox9functions12_GLOBAL__N_111ZipFunction5applyERKNS0_17SelectivityVectorERSt6vectorISt10shared_ptrINS0_10BaseVectorEESaISA_EERKS8_IKNS0_4TypeEERNS0_4exec7EvalCtxERSA_ENKUliE_clEi.exit_crit_edge

entry._ZZNK8facebook5velox9functions12_GLOBAL__N_111ZipFunction5applyERKNS0_17SelectivityVectorERSt6vectorISt10shared_ptrINS0_10BaseVectorEESaISA_EERKS8_IKNS0_4TypeEERNS0_4exec7EvalCtxERSA_ENKUliE_clEi.exit_crit_edge: ; preds = %entry
  %.pre = sext i32 %row to i64
  br label %_ZZNK8facebook5velox9functions12_GLOBAL__N_111ZipFunction5applyERKNS0_17SelectivityVectorERSt6vectorISt10shared_ptrINS0_10BaseVectorEESaISA_EERKS8_IKNS0_4TypeEERNS0_4exec7EvalCtxERSA_ENKUliE_clEi.exit

for.body.lr.ph.i:                                 ; preds = %entry
  %3 = getelementptr inbounds i8, ptr %0, i64 8
  %4 = getelementptr inbounds i8, ptr %0, i64 16
  %idxprom.i = sext i32 %row to i64
  %5 = getelementptr inbounds i8, ptr %0, i64 24
  %6 = getelementptr inbounds i8, ptr %0, i64 40
  %7 = getelementptr inbounds i8, ptr %0, i64 32
  %.pre.i = load ptr, ptr %4, align 8
  %.pre28.i = load ptr, ptr %.pre.i, align 8
  br label %for.body.i

for.body.i:                                       ; preds = %lor.end22.i, %for.body.lr.ph.i
  %8 = phi ptr [ %.pre28.i, %for.body.lr.ph.i ], [ %35, %lor.end22.i ]
  %indvars.iv.i = phi i64 [ 0, %for.body.lr.ph.i ], [ %indvars.iv.next.i, %lor.end22.i ]
  %offset.025.i = phi i32 [ -1, %for.body.lr.ph.i ], [ %38, %lor.end22.i ]
  %maxSize.024.i = phi i32 [ 0, %for.body.lr.ph.i ], [ %.sroa.speculated.i, %lor.end22.i ]
  %9 = load ptr, ptr %3, align 8
  %10 = load ptr, ptr %9, align 8
  %add.ptr.i.i = getelementptr inbounds ptr, ptr %10, i64 %indvars.iv.i
  %11 = load ptr, ptr %add.ptr.i.i, align 8
  %add.ptr.i14.i = getelementptr inbounds ptr, ptr %8, i64 %indvars.iv.i
  %12 = load ptr, ptr %add.ptr.i14.i, align 8
  %arrayidx.i = getelementptr inbounds i32, ptr %12, i64 %idxprom.i
  %13 = load i32, ptr %arrayidx.i, align 4
  %idxprom4.i = sext i32 %13 to i64
  %arrayidx5.i = getelementptr inbounds i32, ptr %11, i64 %idxprom4.i
  %14 = load i32, ptr %arrayidx5.i, align 4
  %cmp6.i = icmp eq i64 %indvars.iv.i, 0
  %cmp7.i = icmp eq i32 %maxSize.024.i, %14
  %15 = select i1 %cmp6.i, i1 true, i1 %cmp7.i
  %16 = load ptr, ptr %5, align 8
  %17 = load i8, ptr %16, align 1
  %18 = and i8 %17, 1
  %tobool1012.i = icmp ne i8 %18, 0
  %tobool10.i = select i1 %15, i1 %tobool1012.i, i1 false
  %frombool.i = zext i1 %tobool10.i to i8
  store i8 %frombool.i, ptr %16, align 1
  br i1 %cmp6.i, label %lor.end22.i, label %lor.rhs12.i

lor.rhs12.i:                                      ; preds = %for.body.i
  %19 = load ptr, ptr %6, align 8
  %20 = load ptr, ptr %19, align 8
  %add.ptr.i15.i = getelementptr inbounds ptr, ptr %20, i64 %indvars.iv.i
  %21 = load ptr, ptr %add.ptr.i15.i, align 8
  %22 = load ptr, ptr %4, align 8
  %23 = load ptr, ptr %22, align 8
  %add.ptr.i16.i = getelementptr inbounds ptr, ptr %23, i64 %indvars.iv.i
  %24 = load ptr, ptr %add.ptr.i16.i, align 8
  %arrayidx18.i = getelementptr inbounds i32, ptr %24, i64 %idxprom.i
  %25 = load i32, ptr %arrayidx18.i, align 4
  %idxprom19.i = sext i32 %25 to i64
  %arrayidx20.i = getelementptr inbounds i32, ptr %21, i64 %idxprom19.i
  %26 = load i32, ptr %arrayidx20.i, align 4
  %cmp21.i = icmp eq i32 %offset.025.i, %26
  br label %lor.end22.i

lor.end22.i:                                      ; preds = %lor.rhs12.i, %for.body.i
  %27 = phi i1 [ true, %for.body.i ], [ %cmp21.i, %lor.rhs12.i ]
  %28 = load ptr, ptr %7, align 8
  %29 = load i8, ptr %28, align 1
  %30 = and i8 %29, 1
  %tobool2713.i = icmp ne i8 %30, 0
  %tobool27.i = select i1 %27, i1 %tobool2713.i, i1 false
  %frombool28.i = zext i1 %tobool27.i to i8
  store i8 %frombool28.i, ptr %28, align 1
  %.sroa.speculated.i = tail call i32 @llvm.smax.i32(i32 %maxSize.024.i, i32 %14)
  %31 = load ptr, ptr %6, align 8
  %32 = load ptr, ptr %31, align 8
  %add.ptr.i17.i = getelementptr inbounds ptr, ptr %32, i64 %indvars.iv.i
  %33 = load ptr, ptr %add.ptr.i17.i, align 8
  %34 = load ptr, ptr %4, align 8
  %35 = load ptr, ptr %34, align 8
  %add.ptr.i18.i = getelementptr inbounds ptr, ptr %35, i64 %indvars.iv.i
  %36 = load ptr, ptr %add.ptr.i18.i, align 8
  %arrayidx35.i = getelementptr inbounds i32, ptr %36, i64 %idxprom.i
  %37 = load i32, ptr %arrayidx35.i, align 4
  %idxprom36.i = sext i32 %37 to i64
  %arrayidx37.i = getelementptr inbounds i32, ptr %33, i64 %idxprom36.i
  %38 = load i32, ptr %arrayidx37.i, align 4
  %indvars.iv.next.i = add nuw nsw i64 %indvars.iv.i, 1
  %39 = load ptr, ptr %0, align 8
  %40 = load i32, ptr %39, align 4
  %41 = sext i32 %40 to i64
  %cmp.i = icmp slt i64 %indvars.iv.next.i, %41
  br i1 %cmp.i, label %for.body.i, label %_ZZNK8facebook5velox9functions12_GLOBAL__N_111ZipFunction5applyERKNS0_17SelectivityVectorERSt6vectorISt10shared_ptrINS0_10BaseVectorEESaISA_EERKS8_IKNS0_4TypeEERNS0_4exec7EvalCtxERSA_ENKUliE_clEi.exit, !llvm.loop !61

_ZZNK8facebook5velox9functions12_GLOBAL__N_111ZipFunction5applyERKNS0_17SelectivityVectorERSt6vectorISt10shared_ptrINS0_10BaseVectorEESaISA_EERKS8_IKNS0_4TypeEERNS0_4exec7EvalCtxERSA_ENKUliE_clEi.exit: ; preds = %lor.end22.i, %entry._ZZNK8facebook5velox9functions12_GLOBAL__N_111ZipFunction5applyERKNS0_17SelectivityVectorERSt6vectorISt10shared_ptrINS0_10BaseVectorEESaISA_EERKS8_IKNS0_4TypeEERNS0_4exec7EvalCtxERSA_ENKUliE_clEi.exit_crit_edge
  %idxprom.pre-phi = phi i64 [ %.pre, %entry._ZZNK8facebook5velox9functions12_GLOBAL__N_111ZipFunction5applyERKNS0_17SelectivityVectorERSt6vectorISt10shared_ptrINS0_10BaseVectorEESaISA_EERKS8_IKNS0_4TypeEERNS0_4exec7EvalCtxERSA_ENKUliE_clEi.exit_crit_edge ], [ %idxprom.i, %lor.end22.i ]
  %maxSize.0.lcssa.i = phi i32 [ 0, %entry._ZZNK8facebook5velox9functions12_GLOBAL__N_111ZipFunction5applyERKNS0_17SelectivityVectorERSt6vectorISt10shared_ptrINS0_10BaseVectorEESaISA_EERKS8_IKNS0_4TypeEERNS0_4exec7EvalCtxERSA_ENKUliE_clEi.exit_crit_edge ], [ %.sroa.speculated.i, %lor.end22.i ]
  %42 = getelementptr inbounds i8, ptr %this, i64 8
  %43 = load ptr, ptr %42, align 8
  %44 = load i32, ptr %43, align 4
  %add = add nsw i32 %44, %maxSize.0.lcssa.i
  store i32 %add, ptr %43, align 4
  %45 = getelementptr inbounds i8, ptr %this, i64 16
  %46 = load ptr, ptr %45, align 8
  %47 = load ptr, ptr %46, align 8
  %arrayidx = getelementptr inbounds i32, ptr %47, i64 %idxprom.pre-phi
  store i32 %maxSize.0.lcssa.i, ptr %arrayidx, align 4
  ret void
}